; Function Attrs: mustprogress uwtable
define internal void @_ZNK12_GLOBAL__N_116itanium_demangle10AbiTagAttr9printLeftERNS0_12OutputBufferE(ptr noundef nonnull readonly align 8 captures(none) dereferenceable(40) %0, ptr noundef nonnull align 8 dereferenceable(44) %1) unnamed_addr #2 align 2 {
  %3 = getelementptr inbounds nuw i8, ptr %0, i64 16
  %4 = load ptr, ptr %3, align 8, !tbaa !248
  %5 = load ptr, ptr %1, align 8, !tbaa !214
  %6 = getelementptr inbounds nuw i8, ptr %5, i64 16
  %7 = load ptr, ptr %6, align 8
  tail call void %7(ptr noundef nonnull align 8 dereferenceable(44) %1, ptr noundef nonnull align 8 dereferenceable(11) %4)
  %8 = getelementptr inbounds nuw i8, ptr %1, i64 16
  %9 = load i64, ptr %8, align 8, !tbaa !224
  %10 = add i64 %9, 5
  %11 = getelementptr inbounds nuw i8, ptr %1, i64 24
  %12 = load i64, ptr %11, align 8, !tbaa !225
  %13 = icmp ugt i64 %10, %12
  br i1 %13, label %14, label %._ZN12_GLOBAL__N_116itanium_demangle12OutputBuffer4growEm.exit_crit_edge.i

._ZN12_GLOBAL__N_116itanium_demangle12OutputBuffer4growEm.exit_crit_edge.i: ; preds = %2
  %.phi.trans.insert.i = getelementptr inbounds nuw i8, ptr %1, i64 8
  %.pre.i = load ptr, ptr %.phi.trans.insert.i, align 8, !tbaa !222
  br label %_ZN12_GLOBAL__N_116itanium_demangle12OutputBuffer4growEm.exit.i

14:                                               ; preds = %2
  %15 = add i64 %9, 997
  %16 = shl i64 %12, 1
  %spec.select.i.i = tail call i64 @llvm.umax.i64(i64 %16, i64 %15)
  store i64 %spec.select.i.i, ptr %11, align 8, !tbaa !225
  %17 = getelementptr inbounds nuw i8, ptr %1, i64 8
  %18 = load ptr, ptr %17, align 8, !tbaa !222
  %19 = tail call ptr @realloc(ptr noundef %18, i64 noundef %spec.select.i.i) #34
  store ptr %19, ptr %17, align 8, !tbaa !222
  %20 = icmp eq ptr %19, null
  br i1 %20, label %21, label %._ZN12_GLOBAL__N_116itanium_demangle12OutputBuffer4growEm.exit_crit_edge4.i

._ZN12_GLOBAL__N_116itanium_demangle12OutputBuffer4growEm.exit_crit_edge4.i: ; preds = %14
  %.pre5.i = load i64, ptr %8, align 8, !tbaa !224
  br label %_ZN12_GLOBAL__N_116itanium_demangle12OutputBuffer4growEm.exit.i

21:                                               ; preds = %14
  tail call void @abort() #33
  unreachable

_ZN12_GLOBAL__N_116itanium_demangle12OutputBuffer4growEm.exit.i: ; preds = %._ZN12_GLOBAL__N_116itanium_demangle12OutputBuffer4growEm.exit_crit_edge4.i, %._ZN12_GLOBAL__N_116itanium_demangle12OutputBuffer4growEm.exit_crit_edge.i
  %22 = phi i64 [ %9, %._ZN12_GLOBAL__N_116itanium_demangle12OutputBuffer4growEm.exit_crit_edge.i ], [ %.pre5.i, %._ZN12_GLOBAL__N_116itanium_demangle12OutputBuffer4growEm.exit_crit_edge4.i ]
  %23 = phi ptr [ %.pre.i, %._ZN12_GLOBAL__N_116itanium_demangle12OutputBuffer4growEm.exit_crit_edge.i ], [ %19, %._ZN12_GLOBAL__N_116itanium_demangle12OutputBuffer4growEm.exit_crit_edge4.i ]
  %24 = getelementptr inbounds nuw i8, ptr %23, i64 %22
  tail call void @llvm.memcpy.p0.p0.i64(ptr noundef nonnull align 1 dereferenceable(5) %24, ptr noundef nonnull readonly align 1 dereferenceable(5) @.str.338, i64 5, i1 false)
  %25 = load i64, ptr %8, align 8, !tbaa !224
  %26 = add i64 %25, 5
  store i64 %26, ptr %8, align 8, !tbaa !224
  %27 = getelementptr inbounds nuw i8, ptr %0, i64 24
  %.sroa.0.0.copyload = load ptr, ptr %27, align 8, !tbaa !219
  %.sroa.2.0..sroa_idx = getelementptr inbounds nuw i8, ptr %0, i64 32
  %.sroa.2.0.copyload = load i64, ptr %.sroa.2.0..sroa_idx, align 8, !tbaa !220
  %.not.i5 = icmp eq i64 %.sroa.2.0.copyload, 0
  br i1 %.not.i5, label %_ZN12_GLOBAL__N_116itanium_demangle12OutputBufferpLENSt3__117basic_string_viewIcNS2_11char_traitsIcEEEE.exit13, label %28

28:                                               ; preds = %_ZN12_GLOBAL__N_116itanium_demangle12OutputBuffer4growEm.exit.i
  %29 = add i64 %26, %.sroa.2.0.copyload
  %30 = load i64, ptr %11, align 8, !tbaa !225
  %31 = icmp ugt i64 %29, %30
  br i1 %31, label %32, label %._ZN12_GLOBAL__N_116itanium_demangle12OutputBuffer4growEm.exit_crit_edge.i6

._ZN12_GLOBAL__N_116itanium_demangle12OutputBuffer4growEm.exit_crit_edge.i6: ; preds = %28
  %.phi.trans.insert.i7 = getelementptr inbounds nuw i8, ptr %1, i64 8
  %.pre.i8 = load ptr, ptr %.phi.trans.insert.i7, align 8, !tbaa !222
  br label %_ZN12_GLOBAL__N_116itanium_demangle12OutputBuffer4growEm.exit.i9

32:                                               ; preds = %28
  %33 = add i64 %29, 992
  %34 = shl i64 %30, 1
  %spec.select.i.i10 = tail call i64 @llvm.umax.i64(i64 %34, i64 %33)
  store i64 %spec.select.i.i10, ptr %11, align 8, !tbaa !225
  %35 = getelementptr inbounds nuw i8, ptr %1, i64 8
  %36 = load ptr, ptr %35, align 8, !tbaa !222
  %37 = tail call ptr @realloc(ptr noundef %36, i64 noundef %spec.select.i.i10) #34
  store ptr %37, ptr %35, align 8, !tbaa !222
  %38 = icmp eq ptr %37, null
  br i1 %38, label %39, label %._ZN12_GLOBAL__N_116itanium_demangle12OutputBuffer4growEm.exit_crit_edge4.i11

._ZN12_GLOBAL__N_116itanium_demangle12OutputBuffer4growEm.exit_crit_edge4.i11: ; preds = %32
  %.pre5.i12 = load i64, ptr %8, align 8, !tbaa !224
  br label %_ZN12_GLOBAL__N_116itanium_demangle12OutputBuffer4growEm.exit.i9

39:                                               ; preds = %32
  tail call void @abort() #33
  unreachable

_ZN12_GLOBAL__N_116itanium_demangle12OutputBuffer4growEm.exit.i9: ; preds = %._ZN12_GLOBAL__N_116itanium_demangle12OutputBuffer4growEm.exit_crit_edge4.i11, %._ZN12_GLOBAL__N_116itanium_demangle12OutputBuffer4growEm.exit_crit_edge.i6
  %40 = phi i64 [ %26, %._ZN12_GLOBAL__N_116itanium_demangle12OutputBuffer4growEm.exit_crit_edge.i6 ], [ %.pre5.i12, %._ZN12_GLOBAL__N_116itanium_demangle12OutputBuffer4growEm.exit_crit_edge4.i11 ]
  %41 = phi ptr [ %.pre.i8, %._ZN12_GLOBAL__N_116itanium_demangle12OutputBuffer4growEm.exit_crit_edge.i6 ], [ %37, %._ZN12_GLOBAL__N_116itanium_demangle12OutputBuffer4growEm.exit_crit_edge4.i11 ]
  %42 = getelementptr inbounds nuw i8, ptr %41, i64 %40
  tail call void @llvm.memcpy.p0.p0.i64(ptr align 1 %42, ptr readonly align 1 %.sroa.0.0.copyload, i64 %.sroa.2.0.copyload, i1 false)
  %43 = load i64, ptr %8, align 8, !tbaa !224
  %44 = add i64 %43, %.sroa.2.0.copyload
  store i64 %44, ptr %8, align 8, !tbaa !224
  br label %_ZN12_GLOBAL__N_116itanium_demangle12OutputBufferpLENSt3__117basic_string_viewIcNS2_11char_traitsIcEEEE.exit13

_ZN12_GLOBAL__N_116itanium_demangle12OutputBufferpLENSt3__117basic_string_viewIcNS2_11char_traitsIcEEEE.exit13: ; preds = %_ZN12_GLOBAL__N_116itanium_demangle12OutputBuffer4growEm.exit.i9, %_ZN12_GLOBAL__N_116itanium_demangle12OutputBuffer4growEm.exit.i
  %45 = phi i64 [ %44, %_ZN12_GLOBAL__N_116itanium_demangle12OutputBuffer4growEm.exit.i9 ], [ %26, %_ZN12_GLOBAL__N_116itanium_demangle12OutputBuffer4growEm.exit.i ]
  %46 = add i64 %45, 1
  %47 = load i64, ptr %11, align 8, !tbaa !225
  %48 = icmp ugt i64 %46, %47
  br i1 %48, label %49, label %._ZN12_GLOBAL__N_116itanium_demangle12OutputBuffer4growEm.exit_crit_edge.i15

._ZN12_GLOBAL__N_116itanium_demangle12OutputBuffer4growEm.exit_crit_edge.i15: ; preds = %_ZN12_GLOBAL__N_116itanium_demangle12OutputBufferpLENSt3__117basic_string_viewIcNS2_11char_traitsIcEEEE.exit13
  %.phi.trans.insert.i16 = getelementptr inbounds nuw i8, ptr %1, i64 8
  %.pre.i17 = load ptr, ptr %.phi.trans.insert.i16, align 8, !tbaa !222
  br label %_ZN12_GLOBAL__N_116itanium_demangle12OutputBuffer4growEm.exit.i18

49:                                               ; preds = %_ZN12_GLOBAL__N_116itanium_demangle12OutputBufferpLENSt3__117basic_string_viewIcNS2_11char_traitsIcEEEE.exit13
  %50 = add i64 %45, 993
  %51 = shl i64 %47, 1
  %spec.select.i.i19 = tail call i64 @llvm.umax.i64(i64 %51, i64 %50)
  store i64 %spec.select.i.i19, ptr %11, align 8, !tbaa !225
  %52 = getelementptr inbounds nuw i8, ptr %1, i64 8
  %53 = load ptr, ptr %52, align 8, !tbaa !222
  %54 = tail call ptr @realloc(ptr noundef %53, i64 noundef %spec.select.i.i19) #34
  store ptr %54, ptr %52, align 8, !tbaa !222
  %55 = icmp eq ptr %54, null
  br i1 %55, label %56, label %._ZN12_GLOBAL__N_116itanium_demangle12OutputBuffer4growEm.exit_crit_edge4.i20

._ZN12_GLOBAL__N_116itanium_demangle12OutputBuffer4growEm.exit_crit_edge4.i20: ; preds = %49
  %.pre5.i21 = load i64, ptr %8, align 8, !tbaa !224
  br label %_ZN12_GLOBAL__N_116itanium_demangle12OutputBuffer4growEm.exit.i18

56:                                               ; preds = %49
  tail call void @abort() #33
  unreachable

_ZN12_GLOBAL__N_116itanium_demangle12OutputBuffer4growEm.exit.i18: ; preds = %._ZN12_GLOBAL__N_116itanium_demangle12OutputBuffer4growEm.exit_crit_edge4.i20, %._ZN12_GLOBAL__N_116itanium_demangle12OutputBuffer4growEm.exit_crit_edge.i15
  %57 = phi i64 [ %45, %._ZN12_GLOBAL__N_116itanium_demangle12OutputBuffer4growEm.exit_crit_edge.i15 ], [ %.pre5.i21, %._ZN12_GLOBAL__N_116itanium_demangle12OutputBuffer4growEm.exit_crit_edge4.i20 ]
  %58 = phi ptr [ %.pre.i17, %._ZN12_GLOBAL__N_116itanium_demangle12OutputBuffer4growEm.exit_crit_edge.i15 ], [ %54, %._ZN12_GLOBAL__N_116itanium_demangle12OutputBuffer4growEm.exit_crit_edge4.i20 ]
  %59 = getelementptr inbounds nuw i8, ptr %58, i64 %57
  store i8 93, ptr %59, align 1
  %60 = load i64, ptr %8, align 8, !tbaa !224
  %61 = add i64 %60, 1
  store i64 %61, ptr %8, align 8, !tbaa !224
  ret void
}